; ModuleID = '57/91.c'
source_filename = "57/91.c"
target datalayout = "e-m:e-p270:32:32-p271:32:32-p272:64:64-i64:64-f80:128-n8:16:32:64-S128"
target triple = "x86_64-pc-linux-gnu"

@.str = private unnamed_addr constant [3 x i8] c"%d\00", align 1
@.str.1 = private unnamed_addr constant [4 x i8] c"%s\0A\00", align 1

; Function Attrs: noinline nounwind uwtable
define dso_local void @main() #0 {
  %1 = alloca [50 x [50 x i8]], align 16
  %2 = alloca i32, align 4
  %3 = alloca i32, align 4
  %4 = alloca i32, align 4
  %5 = call i32 (i8*, ...) @__isoc99_scanf(i8* getelementptr inbounds ([3 x i8], [3 x i8]* @.str, i64 0, i64 0), i32* %4)
  store i32 0, i32* %2, align 4
  br label %6

6:                                                ; preds = %17, %0
  %7 = load i32, i32* %2, align 4
  %8 = load i32, i32* %4, align 4
  %9 = add nsw i32 %8, 1
  %10 = icmp slt i32 %7, %9
  br i1 %10, label %11, label %20

11:                                               ; preds = %6
  %12 = load i32, i32* %2, align 4
  %13 = sext i32 %12 to i64
  %14 = getelementptr inbounds [50 x [50 x i8]], [50 x [50 x i8]]* %1, i64 0, i64 %13
  %15 = getelementptr inbounds [50 x i8], [50 x i8]* %14, i64 0, i64 0
  %16 = call i32 (i8*, ...) bitcast (i32 (...)* @gets to i32 (i8*, ...)*)(i8* %15)
  br label %17

17:                                               ; preds = %11
  %18 = load i32, i32* %2, align 4
  %19 = add nsw i32 %18, 1
  store i32 %19, i32* %2, align 4
  br label %6

20:                                               ; preds = %6
  store i32 0, i32* %2, align 4
  br label %21

21:                                               ; preds = %200, %20
  %22 = load i32, i32* %2, align 4
  %23 = load i32, i32* %4, align 4
  %24 = add nsw i32 %23, 1
  %25 = icmp slt i32 %22, %24
  br i1 %25, label %26, label %203

26:                                               ; preds = %21
  %27 = load i32, i32* %2, align 4
  %28 = sext i32 %27 to i64
  %29 = getelementptr inbounds [50 x [50 x i8]], [50 x [50 x i8]]* %1, i64 0, i64 %28
  %30 = load i32, i32* %2, align 4
  %31 = sext i32 %30 to i64
  %32 = getelementptr inbounds [50 x [50 x i8]], [50 x [50 x i8]]* %1, i64 0, i64 %31
  %33 = getelementptr inbounds [50 x i8], [50 x i8]* %32, i64 0, i64 0
  %34 = call i64 @strlen(i8* %33) #3
  %35 = sub i64 %34, 2
  %36 = getelementptr inbounds [50 x i8], [50 x i8]* %29, i64 0, i64 %35
  %37 = load i8, i8* %36, align 1
  %38 = sext i8 %37 to i32
  %39 = icmp eq i32 %38, 108
  br i1 %39, label %40, label %75

40:                                               ; preds = %26
  %41 = load i32, i32* %2, align 4
  %42 = sext i32 %41 to i64
  %43 = getelementptr inbounds [50 x [50 x i8]], [50 x [50 x i8]]* %1, i64 0, i64 %42
  %44 = load i32, i32* %2, align 4
  %45 = sext i32 %44 to i64
  %46 = getelementptr inbounds [50 x [50 x i8]], [50 x [50 x i8]]* %1, i64 0, i64 %45
  %47 = getelementptr inbounds [50 x i8], [50 x i8]* %46, i64 0, i64 0
  %48 = call i64 @strlen(i8* %47) #3
  %49 = sub i64 %48, 1
  %50 = getelementptr inbounds [50 x i8], [50 x i8]* %43, i64 0, i64 %49
  %51 = load i8, i8* %50, align 1
  %52 = sext i8 %51 to i32
  %53 = icmp eq i32 %52, 121
  br i1 %53, label %54, label %75

54:                                               ; preds = %40
  %55 = load i32, i32* %2, align 4
  %56 = sext i32 %55 to i64
  %57 = getelementptr inbounds [50 x [50 x i8]], [50 x [50 x i8]]* %1, i64 0, i64 %56
  %58 = load i32, i32* %2, align 4
  %59 = sext i32 %58 to i64
  %60 = getelementptr inbounds [50 x [50 x i8]], [50 x [50 x i8]]* %1, i64 0, i64 %59
  %61 = getelementptr inbounds [50 x i8], [50 x i8]* %60, i64 0, i64 0
  %62 = call i64 @strlen(i8* %61) #3
  %63 = sub i64 %62, 1
  %64 = getelementptr inbounds [50 x i8], [50 x i8]* %57, i64 0, i64 %63
  store i8 0, i8* %64, align 1
  %65 = load i32, i32* %2, align 4
  %66 = sext i32 %65 to i64
  %67 = getelementptr inbounds [50 x [50 x i8]], [50 x [50 x i8]]* %1, i64 0, i64 %66
  %68 = load i32, i32* %2, align 4
  %69 = sext i32 %68 to i64
  %70 = getelementptr inbounds [50 x [50 x i8]], [50 x [50 x i8]]* %1, i64 0, i64 %69
  %71 = getelementptr inbounds [50 x i8], [50 x i8]* %70, i64 0, i64 0
  %72 = call i64 @strlen(i8* %71) #3
  %73 = sub i64 %72, 1
  %74 = getelementptr inbounds [50 x i8], [50 x i8]* %67, i64 0, i64 %73
  store i8 0, i8* %74, align 1
  br label %199

75:                                               ; preds = %40, %26
  %76 = load i32, i32* %2, align 4
  %77 = sext i32 %76 to i64
  %78 = getelementptr inbounds [50 x [50 x i8]], [50 x [50 x i8]]* %1, i64 0, i64 %77
  %79 = load i32, i32* %2, align 4
  %80 = sext i32 %79 to i64
  %81 = getelementptr inbounds [50 x [50 x i8]], [50 x [50 x i8]]* %1, i64 0, i64 %80
  %82 = getelementptr inbounds [50 x i8], [50 x i8]* %81, i64 0, i64 0
  %83 = call i64 @strlen(i8* %82) #3
  %84 = sub i64 %83, 2
  %85 = getelementptr inbounds [50 x i8], [50 x i8]* %78, i64 0, i64 %84
  %86 = load i8, i8* %85, align 1
  %87 = sext i8 %86 to i32
  %88 = icmp eq i32 %87, 101
  br i1 %88, label %89, label %124

89:                                               ; preds = %75
  %90 = load i32, i32* %2, align 4
  %91 = sext i32 %90 to i64
  %92 = getelementptr inbounds [50 x [50 x i8]], [50 x [50 x i8]]* %1, i64 0, i64 %91
  %93 = load i32, i32* %2, align 4
  %94 = sext i32 %93 to i64
  %95 = getelementptr inbounds [50 x [50 x i8]], [50 x [50 x i8]]* %1, i64 0, i64 %94
  %96 = getelementptr inbounds [50 x i8], [50 x i8]* %95, i64 0, i64 0
  %97 = call i64 @strlen(i8* %96) #3
  %98 = sub i64 %97, 1
  %99 = getelementptr inbounds [50 x i8], [50 x i8]* %92, i64 0, i64 %98
  %100 = load i8, i8* %99, align 1
  %101 = sext i8 %100 to i32
  %102 = icmp eq i32 %101, 114
  br i1 %102, label %103, label %124

103:                                              ; preds = %89
  %104 = load i32, i32* %2, align 4
  %105 = sext i32 %104 to i64
  %106 = getelementptr inbounds [50 x [50 x i8]], [50 x [50 x i8]]* %1, i64 0, i64 %105
  %107 = load i32, i32* %2, align 4
  %108 = sext i32 %107 to i64
  %109 = getelementptr inbounds [50 x [50 x i8]], [50 x [50 x i8]]* %1, i64 0, i64 %108
  %110 = getelementptr inbounds [50 x i8], [50 x i8]* %109, i64 0, i64 0
  %111 = call i64 @strlen(i8* %110) #3
  %112 = sub i64 %111, 1
  %113 = getelementptr inbounds [50 x i8], [50 x i8]* %106, i64 0, i64 %112
  store i8 0, i8* %113, align 1
  %114 = load i32, i32* %2, align 4
  %115 = sext i32 %114 to i64
  %116 = getelementptr inbounds [50 x [50 x i8]], [50 x [50 x i8]]* %1, i64 0, i64 %115
  %117 = load i32, i32* %2, align 4
  %118 = sext i32 %117 to i64
  %119 = getelementptr inbounds [50 x [50 x i8]], [50 x [50 x i8]]* %1, i64 0, i64 %118
  %120 = getelementptr inbounds [50 x i8], [50 x i8]* %119, i64 0, i64 0
  %121 = call i64 @strlen(i8* %120) #3
  %122 = sub i64 %121, 1
  %123 = getelementptr inbounds [50 x i8], [50 x i8]* %116, i64 0, i64 %122
  store i8 0, i8* %123, align 1
  br label %198

124:                                              ; preds = %89, %75
  %125 = load i32, i32* %2, align 4
  %126 = sext i32 %125 to i64
  %127 = getelementptr inbounds [50 x [50 x i8]], [50 x [50 x i8]]* %1, i64 0, i64 %126
  %128 = load i32, i32* %2, align 4
  %129 = sext i32 %128 to i64
  %130 = getelementptr inbounds [50 x [50 x i8]], [50 x [50 x i8]]* %1, i64 0, i64 %129
  %131 = getelementptr inbounds [50 x i8], [50 x i8]* %130, i64 0, i64 0
  %132 = call i64 @strlen(i8* %131) #3
  %133 = sub i64 %132, 2
  %134 = getelementptr inbounds [50 x i8], [50 x i8]* %127, i64 0, i64 %133
  %135 = load i8, i8* %134, align 1
  %136 = sext i8 %135 to i32
  %137 = icmp eq i32 %136, 110
  br i1 %137, label %138, label %197

138:                                              ; preds = %124
  %139 = load i32, i32* %2, align 4
  %140 = sext i32 %139 to i64
  %141 = getelementptr inbounds [50 x [50 x i8]], [50 x [50 x i8]]* %1, i64 0, i64 %140
  %142 = load i32, i32* %2, align 4
  %143 = sext i32 %142 to i64
  %144 = getelementptr inbounds [50 x [50 x i8]], [50 x [50 x i8]]* %1, i64 0, i64 %143
  %145 = getelementptr inbounds [50 x i8], [50 x i8]* %144, i64 0, i64 0
  %146 = call i64 @strlen(i8* %145) #3
  %147 = sub i64 %146, 1
  %148 = getelementptr inbounds [50 x i8], [50 x i8]* %141, i64 0, i64 %147
  %149 = load i8, i8* %148, align 1
  %150 = sext i8 %149 to i32
  %151 = icmp eq i32 %150, 103
  br i1 %151, label %152, label %197

152:                                              ; preds = %138
  %153 = load i32, i32* %2, align 4
  %154 = sext i32 %153 to i64
  %155 = getelementptr inbounds [50 x [50 x i8]], [50 x [50 x i8]]* %1, i64 0, i64 %154
  %156 = load i32, i32* %2, align 4
  %157 = sext i32 %156 to i64
  %158 = getelementptr inbounds [50 x [50 x i8]], [50 x [50 x i8]]* %1, i64 0, i64 %157
  %159 = getelementptr inbounds [50 x i8], [50 x i8]* %158, i64 0, i64 0
  %160 = call i64 @strlen(i8* %159) #3
  %161 = sub i64 %160, 3
  %162 = getelementptr inbounds [50 x i8], [50 x i8]* %155, i64 0, i64 %161
  %163 = load i8, i8* %162, align 1
  %164 = sext i8 %163 to i32
  %165 = icmp eq i32 %164, 105
  br i1 %165, label %166, label %197

166:                                              ; preds = %152
  %167 = load i32, i32* %2, align 4
  %168 = sext i32 %167 to i64
  %169 = getelementptr inbounds [50 x [50 x i8]], [50 x [50 x i8]]* %1, i64 0, i64 %168
  %170 = load i32, i32* %2, align 4
  %171 = sext i32 %170 to i64
  %172 = getelementptr inbounds [50 x [50 x i8]], [50 x [50 x i8]]* %1, i64 0, i64 %171
  %173 = getelementptr inbounds [50 x i8], [50 x i8]* %172, i64 0, i64 0
  %174 = call i64 @strlen(i8* %173) #3
  %175 = sub i64 %174, 1
  %176 = getelementptr inbounds [50 x i8], [50 x i8]* %169, i64 0, i64 %175
  store i8 0, i8* %176, align 1
  %177 = load i32, i32* %2, align 4
  %178 = sext i32 %177 to i64
  %179 = getelementptr inbounds [50 x [50 x i8]], [50 x [50 x i8]]* %1, i64 0, i64 %178
  %180 = load i32, i32* %2, align 4
  %181 = sext i32 %180 to i64
  %182 = getelementptr inbounds [50 x [50 x i8]], [50 x [50 x i8]]* %1, i64 0, i64 %181
  %183 = getelementptr inbounds [50 x i8], [50 x i8]* %182, i64 0, i64 0
  %184 = call i64 @strlen(i8* %183) #3
  %185 = sub i64 %184, 1
  %186 = getelementptr inbounds [50 x i8], [50 x i8]* %179, i64 0, i64 %185
  store i8 0, i8* %186, align 1
  %187 = load i32, i32* %2, align 4
  %188 = sext i32 %187 to i64
  %189 = getelementptr inbounds [50 x [50 x i8]], [50 x [50 x i8]]* %1, i64 0, i64 %188
  %190 = load i32, i32* %2, align 4
  %191 = sext i32 %190 to i64
  %192 = getelementptr inbounds [50 x [50 x i8]], [50 x [50 x i8]]* %1, i64 0, i64 %191
  %193 = getelementptr inbounds [50 x i8], [50 x i8]* %192, i64 0, i64 0
  %194 = call i64 @strlen(i8* %193) #3
  %195 = sub i64 %194, 1
  %196 = getelementptr inbounds [50 x i8], [50 x i8]* %189, i64 0, i64 %195
  store i8 0, i8* %196, align 1
  br label %197

197:                                              ; preds = %166, %152, %138, %124
  br label %198

198:                                              ; preds = %197, %103
  br label %199

199:                                              ; preds = %198, %54
  br label %200

200:                                              ; preds = %199
  %201 = load i32, i32* %2, align 4
  %202 = add nsw i32 %201, 1
  store i32 %202, i32* %2, align 4
  br label %21

203:                                              ; preds = %21
  store i32 0, i32* %2, align 4
  br label %204

204:                                              ; preds = %215, %203
  %205 = load i32, i32* %2, align 4
  %206 = load i32, i32* %4, align 4
  %207 = add nsw i32 %206, 1
  %208 = icmp slt i32 %205, %207
  br i1 %208, label %209, label %218

209:                                              ; preds = %204
  %210 = load i32, i32* %2, align 4
  %211 = sext i32 %210 to i64
  %212 = getelementptr inbounds [50 x [50 x i8]], [50 x [50 x i8]]* %1, i64 0, i64 %211
  %213 = getelementptr inbounds [50 x i8], [50 x i8]* %212, i64 0, i64 0
  %214 = call i32 (i8*, ...) @printf(i8* getelementptr inbounds ([4 x i8], [4 x i8]* @.str.1, i64 0, i64 0), i8* %213)
  br label %215

215:                                              ; preds = %209
  %216 = load i32, i32* %2, align 4
  %217 = add nsw i32 %216, 1
  store i32 %217, i32* %2, align 4
  br label %204

218:                                              ; preds = %204
  ret void
}

declare dso_local i32 @__isoc99_scanf(i8*, ...) #1

declare dso_local i32 @gets(...) #1

; Function Attrs: nounwind readonly
declare dso_local i64 @strlen(i8*) #2

declare dso_local i32 @printf(i8*, ...) #1


!llvm.module.flags = !{!0}
!llvm.ident = !{!1}

!0 = !{i32 1, !"wchar_size", i32 4}
!1 = !{!"clang version 10.0.0-4ubuntu1 "}
